target datalayout = "e-m:e-p270:32:32-p271:32:32-p272:64:64-i64:64-i128:128-f80:128-n8:16:32:64-S128"
target triple = "x86_64-pc-linux-gnu"

%struct.__va_list_tag = type { i32, i32, ptr, ptr }

; Function Attrs: mustprogress nounwind uwtable
define hidden noundef i32 @_ZN2cv12cv_vsnprintfEPciPKcP13__va_list_tag(ptr noundef %0, i32 noundef %1, ptr noundef %2, ptr noundef %3) #5 {
  %5 = alloca ptr, align 8
  %6 = alloca i32, align 4
  %7 = alloca ptr, align 8
  %8 = alloca ptr, align 8
  store ptr %0, ptr %5, align 8, !tbaa !10
  store i32 %1, ptr %6, align 4, !tbaa !29
  store ptr %2, ptr %7, align 8, !tbaa !10
  store ptr %3, ptr %8, align 8, !tbaa !83
  %9 = load ptr, ptr %5, align 8, !tbaa !10
  %10 = load i32, ptr %6, align 4, !tbaa !29
  %11 = sext i32 %10 to i64
  %12 = load ptr, ptr %7, align 8, !tbaa !10
  %13 = load ptr, ptr %8, align 8, !tbaa !83
  %14 = call i32 @vsnprintf(ptr noundef %9, i64 noundef %11, ptr noundef %12, ptr noundef %13) #3
  ret i32 %14
}

; Function Attrs: mustprogress uwtable
define hidden noundef i32 @_ZN2cv11cv_snprintfEPciPKcz(ptr noundef %0, i32 noundef %1, ptr noundef %2, ...) #4 {
  %4 = alloca ptr, align 8
  %5 = alloca i32, align 4
  %6 = alloca ptr, align 8
  %7 = alloca [1 x %struct.__va_list_tag], align 16
  %8 = alloca i32, align 4
  store ptr %0, ptr %4, align 8, !tbaa !10
  store i32 %1, ptr %5, align 4, !tbaa !29
  store ptr %2, ptr %6, align 8, !tbaa !10
  call void @llvm.lifetime.start.p0(i64 24, ptr %7) #3
  %9 = getelementptr inbounds [1 x %struct.__va_list_tag], ptr %7, i64 0, i64 0
  call void @llvm.va_start.p0(ptr %9)
  call void @llvm.lifetime.start.p0(i64 4, ptr %8) #3
  %10 = load ptr, ptr %4, align 8, !tbaa !10
  %11 = load i32, ptr %5, align 4, !tbaa !29
  %12 = load ptr, ptr %6, align 8, !tbaa !10
  %13 = getelementptr inbounds [1 x %struct.__va_list_tag], ptr %7, i64 0, i64 0
  %14 = call noundef i32 @_ZN2cv12cv_vsnprintfEPciPKcP13__va_list_tag(ptr noundef %10, i32 noundef %11, ptr noundef %12, ptr noundef %13)
  store i32 %14, ptr %8, align 4, !tbaa !29
  %15 = getelementptr inbounds [1 x %struct.__va_list_tag], ptr %7, i64 0, i64 0
  call void @llvm.va_end.p0(ptr %15)
  %16 = load i32, ptr %8, align 4, !tbaa !29
  call void @llvm.lifetime.end.p0(i64 4, ptr %8) #3
  call void @llvm.lifetime.end.p0(i64 24, ptr %7) #3
  ret i32 %16
}