; Function Attrs: mustprogress nofree nounwind uwtable
define hidden noundef i32 @_ZN2cv11cv_snprintfEPciPKcz(ptr noundef captures(none) %0, i32 noundef %1, ptr noundef readonly captures(none) %2, ...) local_unnamed_addr #13 {
  %4 = alloca [1 x %struct.__va_list_tag], align 16
  call void @llvm.lifetime.start.p0(i64 24, ptr nonnull %4) #34
  call void @llvm.va_start.p0(ptr nonnull %4)
  %5 = sext i32 %1 to i64
  %6 = call noundef i32 @vsnprintf(ptr noundef %0, i64 noundef %5, ptr noundef readonly %2, ptr noundef nonnull %4) #34
  call void @llvm.va_end.p0(ptr nonnull %4)
  call void @llvm.lifetime.end.p0(i64 24, ptr nonnull %4) #34
  ret i32 %6
}